; Function Attrs: mustprogress nofree norecurse nosync nounwind ssp willreturn memory(argmem: readwrite) uwtable
define internal void @_ZN6open3d4core6kernelL25CPULogicalOrElementKernelIbbEEvPKvS4_Pv(ptr noundef readonly captures(none) %0, ptr noundef readonly captures(none) %1, ptr noundef writeonly captures(none) initializes((0, 1)) %2) #15 {
  %4 = load i8, ptr %0, align 1, !tbaa !75, !range !77, !noundef !78
  %5 = trunc nuw i8 %4 to i1
  br i1 %5, label %8, label %6

6:                                                ; preds = %3
  %7 = load i8, ptr %1, align 1, !tbaa !75, !range !77, !noundef !78
  br label %8

8:                                                ; preds = %6, %3
  %9 = phi i8 [ 1, %3 ], [ %7, %6 ]
  store i8 %9, ptr %2, align 1, !tbaa !75
  ret void
}